(dp1
S'OriginalConfig'
p2
ccopy_reg
_reconstructor
p3
(cWMCore.Configuration
Configuration
p4
c__builtin__
object
p5
NtRp6
(dp7
S'Site'
p8
g3
(cWMCore.Configuration
ConfigSection
p9
g5
NtRp10
(dp11
S'_internal_documentation'
p12
S''
sS'_internal_settings'
p13
c__builtin__
set
p14
((lp15
S'storageSite'
p16
atRp17
sS'_internal_name'
p18
g8
sS'_internal_docstrings'
p19
(dp20
sS'_internal_children'
p21
g14
((ltRp22
sg16
S'T2_CH_CERN'
p23
sS'_internal_parent_ref'
p24
NsbsS'_internal_sections'
p25
(lp26
S'General'
p27
aS'JobType'
p28
aS'Data'
p29
ag8
aS'User'
p30
aS'Debug'
p31
asg27
g3
(g9
g5
NtRp32
(dp33
S'transferLogs'
p34
I01
sg12
S''
sg13
g14
((lp35
g34
aS'transferOutputs'
p36
aS'workArea'
p37
aS'requestName'
p38
atRp39
sg18
g27
sg19
(dp40
sg36
I01
sg21
g14
((ltRp41
sg38
S'OpenDataTree_all'
p42
sg24
Nsg37
S'crab_projects'
p43
sbsS'_internal_webapps'
p44
(lp45
sg30
g3
(g9
g5
NtRp46
(dp47
g12
S''
sg13
g14
((ltRp48
sg18
g30
sg19
(dp49
sg21
g14
((ltRp50
sg24
NsbsS'_internal_components'
p51
(lp52
sg31
g3
(g9
g5
NtRp53
(dp54
g12
S''
sg13
g14
((ltRp55
sg18
g31
sg19
(dp56
sg21
g14
((ltRp57
sg24
Nsbsg29
g3
(g9
g5
NtRp58
(dp59
S'inputDataset'
p60
S'/Jet/Run2011A-12Oct2013-v1/AOD'
p61
sS'publication'
p62
I00
sS'splitting'
p63
S'FileBased'
p64
sS'unitsPerJob'
p65
I6
sg12
S''
sg13
g14
((lp66
g60
ag62
ag65
ag63
aS'inputDBS'
p67
aS'lumiMask'
p68
aS'outLFNDirBase'
p69
aS'runRange'
p70
atRp71
sg18
g29
sg67
S'global'
p72
sg19
(dp73
sg21
g14
((ltRp74
sg69
S'/store/group/phys_smp/mhaapale/'
p75
sg24
Nsg68
S'./Cert_160404-180252_7TeV_ReRecoNov08_Collisions11_JSON.txt'
p76
sg70
S'160404-173692'
p77
sbsg28
g3
(g9
g5
NtRp78
(dp79
g12
S''
sg13
g14
((lp80
S'psetName'
p81
aS'pluginName'
p82
aS'maxJobRuntimeMin'
p83
atRp84
sg18
g28
sg19
(dp85
sg82
S'Analysis'
p86
sg21
g14
((ltRp87
sg81
S'./OpenDataTreeProducer_dataPAT_2011_cfg.py'
p88
sg24
Nsg83
I2000
sbsbsS'voGroup'
p89
S''
sS'Server'
p90
S'cmsweb.cern.ch'
p91
sS'instance'
p92
S'prod'
p93
sS'RequestName'
p94
S'160809_135723:mhaapale_crab_OpenDataTree_all'
p95
sS'voRole'
p96
S'NULL'
p97
sS'Port'
p98
S''
s.